; Function Attrs: mustprogress uwtable
define hidden void @_ZN2cv8tinyxml210XMLPrinter11PrintStringEPKcb(ptr noundef nonnull align 8 dereferenceable(312) %0, ptr noundef %1, i1 noundef zeroext %2) local_unnamed_addr #4 align 2 {
  %.v = select i1 %2, i64 202, i64 138
  %4 = getelementptr inbounds nuw i8, ptr %0, i64 %.v
  %5 = getelementptr inbounds nuw i8, ptr %0, i64 136
  %6 = load i8, ptr %5, align 8, !tbaa !167, !range !119, !noundef !120
  %7 = trunc nuw i8 %6 to i1
  br i1 %7, label %.preheader33, label %.loopexit34.thread

.preheader33:                                     ; preds = %3
  %8 = load i8, ptr %1, align 1, !tbaa !12
  %.not37 = icmp eq i8 %8, 0
  br i1 %.not37, label %.loopexit34, label %.lr.ph40

.lr.ph40:                                         ; preds = %.preheader33, %30
  %9 = phi i8 [ %32, %30 ], [ %8, %.preheader33 ]
  %.139 = phi ptr [ %.2, %30 ], [ %1, %.preheader33 ]
  %.12338 = phi ptr [ %31, %30 ], [ %1, %.preheader33 ]
  %or.cond = icmp ult i8 %9, 64
  br i1 %or.cond, label %10, label %30

10:                                               ; preds = %.lr.ph40
  %11 = zext nneg i8 %9 to i64
  %12 = getelementptr inbounds nuw i8, ptr %4, i64 %11
  %13 = load i8, ptr %12, align 1, !tbaa !30, !range !119, !noundef !120
  %14 = trunc nuw i8 %13 to i1
  br i1 %14, label %.preheader32, label %30

.preheader32:                                     ; preds = %10
  %15 = icmp ult ptr %.139, %.12338
  br i1 %15, label %.lr.ph, label %.preheader

.preheader.loopexit:                              ; preds = %.lr.ph
  %.pre = load i8, ptr %.12338, align 1, !tbaa !12
  br label %.preheader

.preheader:                                       ; preds = %.preheader.loopexit, %.preheader32
  %16 = phi i8 [ %9, %.preheader32 ], [ %.pre, %.preheader.loopexit ]
  %.3.lcssa = phi ptr [ %.139, %.preheader32 ], [ %19, %.preheader.loopexit ]
  br label %22

.lr.ph:                                           ; preds = %.preheader32, %.lr.ph
  %.335 = phi ptr [ %19, %.lr.ph ], [ %.139, %.preheader32 ]
  %17 = load i8, ptr %.335, align 1, !tbaa !12
  %18 = sext i8 %17 to i32
  tail call void (ptr, ptr, ...) @_ZN2cv8tinyxml210XMLPrinter5PrintEPKcz(ptr noundef nonnull align 8 dereferenceable(312) %0, ptr noundef nonnull @.str.23, i32 noundef %18)
  %19 = getelementptr inbounds nuw i8, ptr %.335, i64 1
  %20 = icmp ult ptr %19, %.12338
  br i1 %20, label %.lr.ph, label %.preheader.loopexit, !llvm.loop !175

21:                                               ; preds = %22
  %indvars.iv.next = add nuw nsw i64 %indvars.iv, 1
  %exitcond.not = icmp eq i64 %indvars.iv.next, 5
  br i1 %exitcond.not, label %.loopexit, label %22, !llvm.loop !176

22:                                               ; preds = %.preheader, %21
  %indvars.iv = phi i64 [ 0, %.preheader ], [ %indvars.iv.next, %21 ]
  %23 = getelementptr inbounds nuw [5 x %"struct.cv::tinyxml2::Entity"], ptr @_ZN2cv8tinyxml2L8entitiesE, i64 0, i64 %indvars.iv
  %24 = getelementptr inbounds nuw i8, ptr %23, i64 12
  %25 = load i8, ptr %24, align 4, !tbaa !23
  %26 = icmp eq i8 %25, %16
  br i1 %26, label %27, label %21

27:                                               ; preds = %22
  %28 = load ptr, ptr %23, align 16, !tbaa !20
  tail call void (ptr, ptr, ...) @_ZN2cv8tinyxml210XMLPrinter5PrintEPKcz(ptr noundef nonnull align 8 dereferenceable(312) %0, ptr noundef nonnull @.str.24, ptr noundef %28)
  br label %.loopexit

.loopexit:                                        ; preds = %21, %27
  %29 = getelementptr inbounds nuw i8, ptr %.3.lcssa, i64 1
  br label %30

30:                                               ; preds = %10, %.loopexit, %.lr.ph40
  %.2 = phi ptr [ %29, %.loopexit ], [ %.139, %10 ], [ %.139, %.lr.ph40 ]
  %31 = getelementptr inbounds nuw i8, ptr %.12338, i64 1
  %32 = load i8, ptr %31, align 1, !tbaa !12
  %.not = icmp eq i8 %32, 0
  br i1 %.not, label %.loopexit34.loopexit, label %.lr.ph40, !llvm.loop !177

.loopexit34.loopexit:                             ; preds = %30
  %.pre47 = load i8, ptr %5, align 8, !tbaa !167, !range !119
  %.pre48 = trunc nuw i8 %.pre47 to i1
  br label %.loopexit34

.loopexit34:                                      ; preds = %.loopexit34.loopexit, %.preheader33
  %.pre-phi = phi i1 [ %.pre48, %.loopexit34.loopexit ], [ true, %.preheader33 ]
  %.022 = phi ptr [ %31, %.loopexit34.loopexit ], [ %1, %.preheader33 ]
  %.021 = phi ptr [ %.2, %.loopexit34.loopexit ], [ %1, %.preheader33 ]
  %33 = ptrtoint ptr %.022 to i64
  %34 = ptrtoint ptr %.021 to i64
  %35 = sub i64 %33, %34
  %36 = icmp slt i64 %35, 1
  %or.cond30.not = select i1 %.pre-phi, i1 %36, i1 false
  br i1 %or.cond30.not, label %37, label %.loopexit34.thread

.loopexit34.thread:                               ; preds = %3, %.loopexit34
  %.02153 = phi ptr [ %.021, %.loopexit34 ], [ %1, %3 ]
  tail call void (ptr, ptr, ...) @_ZN2cv8tinyxml210XMLPrinter5PrintEPKcz(ptr noundef nonnull align 8 dereferenceable(312) %0, ptr noundef nonnull @.str.20, ptr noundef %.02153)
  br label %37

37:                                               ; preds = %.loopexit34, %.loopexit34.thread
  ret void
}